	.file	"se201-prog.c"
	.option pic
	.attribute arch, "rv32i2p1_m2p0"
	.attribute unaligned_access, 0
	.attribute stack_align, 16
	.text
.Ltext0:
	.file 0 "/home/bl4ck/_code/riscv-processor-design/code" "se201-prog.c"
	.section	.rodata
	.align	2
.LC0:
	.word	1
	.word	2
	.word	3
	.word	4
	.word	5
	.align	2
.LC1:
	.word	10
	.word	20
	.word	30
	.word	40
	.word	50
	.text
	.align	2
	.globl	main
	.type	main, @function
main:
.LFB0:
	.file 1 "se201-prog.c"
	.loc 1 3 12
	.cfi_startproc
	addi	sp,sp,-96
	.cfi_def_cfa_offset 96
	sw	ra,92(sp)
	sw	s0,88(sp)
	.cfi_offset 1, -4
	.cfi_offset 8, -8
	addi	s0,sp,96
	.cfi_def_cfa 8, 0
	.loc 1 3 12
	la	a5,__stack_chk_guard
	lw	a4, 0(a5)
	sw	a4, -20(s0)
	li	a4, 0
	.loc 1 4 9
	lla	a5,.LC0
	lw	a1,0(a5)
	lw	a2,4(a5)
	lw	a3,8(a5)
	lw	a4,12(a5)
	lw	a5,16(a5)
	sw	a1,-80(s0)
	sw	a2,-76(s0)
	sw	a3,-72(s0)
	sw	a4,-68(s0)
	sw	a5,-64(s0)
	.loc 1 5 9
	lla	a5,.LC1
	lw	a1,0(a5)
	lw	a2,4(a5)
	lw	a3,8(a5)
	lw	a4,12(a5)
	lw	a5,16(a5)
	sw	a1,-60(s0)
	sw	a2,-56(s0)
	sw	a3,-52(s0)
	sw	a4,-48(s0)
	sw	a5,-44(s0)
	.loc 1 6 9
	li	a5,5
	sw	a5,-88(s0)
	.loc 1 9 15
	addi	a2,s0,-40
	addi	a4,s0,-60
	addi	a5,s0,-80
	lw	a3,-88(s0)
	mv	a1,a4
	mv	a0,a5
	call	addv
	sw	a0,-84(s0)
	.loc 1 10 12
	li	a5,0
	.loc 1 11 1
	mv	a4,a5
	la	a5,__stack_chk_guard
	lw	a3, -20(s0)
	lw	a5, 0(a5)
	xor	a5, a3, a5
	li	a3, 0
	beq	a5,zero,.L3
	call	__stack_chk_fail@plt
.L3:
	mv	a0,a4
	lw	ra,92(sp)
	.cfi_restore 1
	lw	s0,88(sp)
	.cfi_restore 8
	.cfi_def_cfa 2, 96
	addi	sp,sp,96
	.cfi_def_cfa_offset 0
	jr	ra
	.cfi_endproc
.LFE0:
	.size	main, .-main
	.align	2
	.globl	addv
	.type	addv, @function
addv:
.LFB1:
	.loc 1 14 1
	.cfi_startproc
	addi	sp,sp,-48
	.cfi_def_cfa_offset 48
	sw	s0,44(sp)
	.cfi_offset 8, -4
	addi	s0,sp,48
	.cfi_def_cfa 8, 0
	sw	a0,-36(s0)
	sw	a1,-40(s0)
	sw	a2,-44(s0)
	sw	a3,-48(s0)
	.loc 1 15 8
	lw	a5,-36(s0)
	bne	a5,zero,.L5
	.loc 1 16 16
	li	a5,-1
	j	.L6
.L5:
	.loc 1 17 8
	lw	a5,-40(s0)
	bne	a5,zero,.L7
	.loc 1 18 16
	li	a5,-1
	j	.L6
.L7:
	.loc 1 19 8
	lw	a5,-44(s0)
	bne	a5,zero,.L8
	.loc 1 20 16
	li	a5,-1
	j	.L6
.L8:
	.loc 1 21 8
	lw	a5,-48(s0)
	bgt	a5,zero,.L9
	.loc 1 22 16
	lw	a5,-48(s0)
	j	.L6
.L9:
.LBB2:
	.loc 1 24 15
	sw	zero,-20(s0)
	.loc 1 24 5
	j	.L10
.L11:
	.loc 1 25 22
	lw	a5,-20(s0)
	slli	a5,a5,2
	lw	a4,-36(s0)
	add	a5,a4,a5
	lw	a3,0(a5)
	.loc 1 25 31
	lw	a5,-20(s0)
	slli	a5,a5,2
	lw	a4,-40(s0)
	add	a5,a4,a5
	lw	a4,0(a5)
	.loc 1 25 13
	lw	a5,-20(s0)
	slli	a5,a5,2
	lw	a2,-44(s0)
	add	a5,a2,a5
	.loc 1 25 26
	add	a4,a3,a4
	.loc 1 25 17
	sw	a4,0(a5)
	.loc 1 24 33 discriminator 3
	lw	a5,-20(s0)
	addi	a5,a5,1
	sw	a5,-20(s0)
.L10:
	.loc 1 24 25 discriminator 1
	lw	a4,-20(s0)
	lw	a5,-48(s0)
	blt	a4,a5,.L11
.LBE2:
	.loc 1 28 12
	lw	a5,-48(s0)
.L6:
	.loc 1 29 1
	mv	a0,a5
	lw	s0,44(sp)
	.cfi_restore 8
	.cfi_def_cfa 2, 48
	addi	sp,sp,48
	.cfi_def_cfa_offset 0
	jr	ra
	.cfi_endproc
.LFE1:
	.size	addv, .-addv
.Letext0:
	.section	.note.GNU-stack,"",@progbits
